target datalayout = "e-m:e-p270:32:32-p271:32:32-p272:64:64-i64:64-i128:128-f80:128-n8:16:32:64-S128"
target triple = "x86_64-pc-linux-gnu"

@hf_cigi3_hat_hot_response_hat_hot_id = internal global i32 0, align 4
@hf_cigi3_hat_hot_response_valid = internal global i32 0, align 4
@hf_cigi3_hat_hot_response_type = internal global i32 0, align 4
@hf_cigi3_hat_hot_response_height = internal global i32 0, align 4
@hf_cigi3_2_hat_hot_response_host_frame_number_lsn = internal global i32 0, align 4
@hf_cigi4_hat_hot_response_flags = internal global i32 0, align 4
@ett_cigi4_hat_hot_response_flags = internal global i32 0, align 4
@cigi_byte_order = internal global i32 0, align 4

; Function Attrs: null_pointer_is_valid sspstrong uwtable
define internal i32 @cigi4_add_hat_hot_response(ptr noundef %0, ptr noundef %1, ptr noundef %2, ptr noundef %3) #0 {
  %5 = alloca ptr, align 8
  %6 = alloca ptr, align 8
  %7 = alloca ptr, align 8
  %8 = alloca ptr, align 8
  %9 = alloca ptr, align 8
  %10 = alloca ptr, align 8
  %11 = alloca i32, align 4
  store ptr %0, ptr %5, align 8
  store ptr %1, ptr %6, align 8
  store ptr %2, ptr %7, align 8
  store ptr %3, ptr %8, align 8
  call void @llvm.lifetime.start.p0(i64 8, ptr %9) #5
  call void @llvm.lifetime.start.p0(i64 8, ptr %10) #5
  call void @llvm.lifetime.start.p0(i64 4, ptr %11) #5
  store i32 0, ptr %11, align 4
  %12 = load ptr, ptr %7, align 8
  %13 = load i32, ptr @hf_cigi4_hat_hot_response_flags, align 4
  %14 = load ptr, ptr %5, align 8
  %15 = load i32, ptr %11, align 4
  %16 = load i32, ptr @cigi_byte_order, align 4
  %17 = call ptr @proto_tree_add_item(ptr noundef %12, i32 noundef %13, ptr noundef %14, i32 noundef %15, i32 noundef 1, i32 noundef %16)
  store ptr %17, ptr %10, align 8
  %18 = load ptr, ptr %10, align 8
  %19 = load i32, ptr @ett_cigi4_hat_hot_response_flags, align 4
  %20 = call ptr @proto_item_add_subtree(ptr noundef %18, i32 noundef %19)
  store ptr %20, ptr %9, align 8
  %21 = load ptr, ptr %9, align 8
  %22 = load i32, ptr @hf_cigi3_hat_hot_response_valid, align 4
  %23 = load ptr, ptr %5, align 8
  %24 = load i32, ptr %11, align 4
  %25 = load i32, ptr @cigi_byte_order, align 4
  %26 = call ptr @proto_tree_add_item(ptr noundef %21, i32 noundef %22, ptr noundef %23, i32 noundef %24, i32 noundef 1, i32 noundef %25)
  %27 = load ptr, ptr %9, align 8
  %28 = load i32, ptr @hf_cigi3_hat_hot_response_type, align 4
  %29 = load ptr, ptr %5, align 8
  %30 = load i32, ptr %11, align 4
  %31 = load i32, ptr @cigi_byte_order, align 4
  %32 = call ptr @proto_tree_add_item(ptr noundef %27, i32 noundef %28, ptr noundef %29, i32 noundef %30, i32 noundef 1, i32 noundef %31)
  %33 = load ptr, ptr %9, align 8
  %34 = load i32, ptr @hf_cigi3_2_hat_hot_response_host_frame_number_lsn, align 4
  %35 = load ptr, ptr %5, align 8
  %36 = load i32, ptr %11, align 4
  %37 = load i32, ptr @cigi_byte_order, align 4
  %38 = call ptr @proto_tree_add_item(ptr noundef %33, i32 noundef %34, ptr noundef %35, i32 noundef %36, i32 noundef 1, i32 noundef %37)
  %39 = load i32, ptr %11, align 4
  %40 = add i32 %39, 2
  store i32 %40, ptr %11, align 4
  %41 = load ptr, ptr %7, align 8
  %42 = load i32, ptr @hf_cigi3_hat_hot_response_hat_hot_id, align 4
  %43 = load ptr, ptr %5, align 8
  %44 = load i32, ptr %11, align 4
  %45 = load i32, ptr @cigi_byte_order, align 4
  %46 = call ptr @proto_tree_add_item(ptr noundef %41, i32 noundef %42, ptr noundef %43, i32 noundef %44, i32 noundef 2, i32 noundef %45)
  %47 = load i32, ptr %11, align 4
  %48 = add i32 %47, 2
  store i32 %48, ptr %11, align 4
  %49 = load ptr, ptr %7, align 8
  %50 = load i32, ptr @hf_cigi3_hat_hot_response_height, align 4
  %51 = load ptr, ptr %5, align 8
  %52 = load i32, ptr %11, align 4
  %53 = load i32, ptr @cigi_byte_order, align 4
  %54 = call ptr @proto_tree_add_item(ptr noundef %49, i32 noundef %50, ptr noundef %51, i32 noundef %52, i32 noundef 8, i32 noundef %53)
  %55 = load i32, ptr %11, align 4
  %56 = add i32 %55, 8
  store i32 %56, ptr %11, align 4
  %57 = load i32, ptr %11, align 4
  call void @llvm.lifetime.end.p0(i64 4, ptr %11) #5
  call void @llvm.lifetime.end.p0(i64 8, ptr %10) #5
  call void @llvm.lifetime.end.p0(i64 8, ptr %9) #5
  ret i32 %57
}