; Function Attrs: null_pointer_is_valid sspstrong uwtable
define internal noundef i32 @cigi4_add_hat_hot_response(ptr noundef %0, ptr readnone captures(none) %1, ptr noundef %2, ptr readnone captures(none) %3) #0 {
  %5 = load i32, ptr @hf_cigi4_hat_hot_response_flags, align 4
  %.b26 = load i1, ptr @cigi_byte_order, align 4
  %6 = select i1 %.b26, i32 -2147483648, i32 0
  %7 = tail call ptr @proto_tree_add_item(ptr noundef %2, i32 noundef %5, ptr noundef %0, i32 noundef 0, i32 noundef 1, i32 noundef %6)
  %8 = load i32, ptr @ett_cigi4_hat_hot_response_flags, align 4
  %9 = tail call ptr @proto_item_add_subtree(ptr noundef %7, i32 noundef %8)
  %10 = load i32, ptr @hf_cigi3_hat_hot_response_valid, align 4
  %.b25 = load i1, ptr @cigi_byte_order, align 4
  %11 = select i1 %.b25, i32 -2147483648, i32 0
  %12 = tail call ptr @proto_tree_add_item(ptr noundef %9, i32 noundef %10, ptr noundef %0, i32 noundef 0, i32 noundef 1, i32 noundef %11)
  %13 = load i32, ptr @hf_cigi3_hat_hot_response_type, align 4
  %.b24 = load i1, ptr @cigi_byte_order, align 4
  %14 = select i1 %.b24, i32 -2147483648, i32 0
  %15 = tail call ptr @proto_tree_add_item(ptr noundef %9, i32 noundef %13, ptr noundef %0, i32 noundef 0, i32 noundef 1, i32 noundef %14)
  %16 = load i32, ptr @hf_cigi3_2_hat_hot_response_host_frame_number_lsn, align 4
  %.b23 = load i1, ptr @cigi_byte_order, align 4
  %17 = select i1 %.b23, i32 -2147483648, i32 0
  %18 = tail call ptr @proto_tree_add_item(ptr noundef %9, i32 noundef %16, ptr noundef %0, i32 noundef 0, i32 noundef 1, i32 noundef %17)
  %19 = load i32, ptr @hf_cigi3_hat_hot_response_hat_hot_id, align 4
  %.b22 = load i1, ptr @cigi_byte_order, align 4
  %20 = select i1 %.b22, i32 -2147483648, i32 0
  %21 = tail call ptr @proto_tree_add_item(ptr noundef %2, i32 noundef %19, ptr noundef %0, i32 noundef 2, i32 noundef 2, i32 noundef %20)
  %22 = load i32, ptr @hf_cigi3_hat_hot_response_height, align 4
  %.b = load i1, ptr @cigi_byte_order, align 4
  %23 = select i1 %.b, i32 -2147483648, i32 0
  %24 = tail call ptr @proto_tree_add_item(ptr noundef %2, i32 noundef %22, ptr noundef %0, i32 noundef 4, i32 noundef 8, i32 noundef %23)
  ret i32 12
}